; Function Attrs: nounwind uwtable
define noalias nonnull ptr @l_Lean_Elab_Tactic_BVDecide_Frontend_Normalize_bool__beq___lambda__1(ptr noundef %0, ptr readnone captures(none) %1, ptr readnone captures(none) %2, ptr readnone captures(none) %3, ptr readnone captures(none) %4, ptr readnone captures(none) %5, ptr noundef %6) local_unnamed_addr #0 {
  %8 = load ptr, ptr @l_Lean_Elab_Tactic_BVDecide_Frontend_Normalize_bool__beq___lambda__1___closed__3, align 8, !tbaa !4
  %9 = tail call ptr @l_Lean_Expr_app___override(ptr noundef %8, ptr noundef %0) #5
  tail call void @lean_inc_heartbeat() #5
  %10 = tail call noalias ptr @mi_malloc_small(i64 noundef 16) #5
  %11 = icmp eq ptr %10, null
  br i1 %11, label %12, label %lean_alloc_ctor.exit

12:                                               ; preds = %7
  tail call void @lean_internal_panic_out_of_memory() #6
  unreachable

lean_alloc_ctor.exit:                             ; preds = %7
  %13 = getelementptr inbounds nuw i8, ptr %10, i64 4
  store i32 1, ptr %10, align 4, !tbaa !8
  store i32 16842768, ptr %13, align 4
  %14 = getelementptr inbounds nuw i8, ptr %10, i64 8
  store ptr %9, ptr %14, align 8, !tbaa !4
  %15 = load ptr, ptr @l_Lean_Elab_Tactic_BVDecide_Frontend_Normalize_bool__and___lambda__1___closed__6, align 8, !tbaa !4
  tail call void @lean_inc_heartbeat() #5
  %16 = tail call noalias ptr @mi_malloc_small(i64 noundef 32) #5
  %17 = icmp eq ptr %16, null
  br i1 %17, label %18, label %lean_alloc_ctor.exit18

18:                                               ; preds = %lean_alloc_ctor.exit
  tail call void @lean_internal_panic_out_of_memory() #6
  unreachable

lean_alloc_ctor.exit18:                           ; preds = %lean_alloc_ctor.exit
  %19 = getelementptr inbounds nuw i8, ptr %16, i64 4
  %20 = getelementptr inbounds nuw i8, ptr %16, i64 24
  store i64 1, ptr %20, align 8, !tbaa !12
  store i32 1, ptr %16, align 4, !tbaa !8
  store i32 131104, ptr %19, align 4
  %21 = getelementptr inbounds nuw i8, ptr %16, i64 8
  store ptr %15, ptr %21, align 8, !tbaa !4
  %22 = getelementptr inbounds nuw i8, ptr %16, i64 16
  store ptr %10, ptr %22, align 8, !tbaa !4
  tail call void @lean_inc_heartbeat() #5
  %23 = tail call noalias ptr @mi_malloc_small(i64 noundef 16) #5
  %24 = icmp eq ptr %23, null
  br i1 %24, label %25, label %lean_alloc_ctor.exit19

25:                                               ; preds = %lean_alloc_ctor.exit18
  tail call void @lean_internal_panic_out_of_memory() #6
  unreachable

lean_alloc_ctor.exit19:                           ; preds = %lean_alloc_ctor.exit18
  %26 = getelementptr inbounds nuw i8, ptr %23, i64 4
  store i32 1, ptr %23, align 4, !tbaa !8
  store i32 16842768, ptr %26, align 4
  %27 = getelementptr inbounds nuw i8, ptr %23, i64 8
  store ptr %16, ptr %27, align 8, !tbaa !4
  tail call void @lean_inc_heartbeat() #5
  %28 = tail call noalias ptr @mi_malloc_small(i64 noundef 16) #5
  %29 = icmp eq ptr %28, null
  br i1 %29, label %30, label %lean_alloc_ctor.exit20

30:                                               ; preds = %lean_alloc_ctor.exit19
  tail call void @lean_internal_panic_out_of_memory() #6
  unreachable

lean_alloc_ctor.exit20:                           ; preds = %lean_alloc_ctor.exit19
  %31 = getelementptr inbounds nuw i8, ptr %28, i64 4
  store i32 1, ptr %28, align 4, !tbaa !8
  store i32 16842768, ptr %31, align 4
  %32 = getelementptr inbounds nuw i8, ptr %28, i64 8
  store ptr %23, ptr %32, align 8, !tbaa !4
  tail call void @lean_inc_heartbeat() #5
  %33 = tail call noalias ptr @mi_malloc_small(i64 noundef 24) #5
  %34 = icmp eq ptr %33, null
  br i1 %34, label %35, label %lean_alloc_ctor.exit21

35:                                               ; preds = %lean_alloc_ctor.exit20
  tail call void @lean_internal_panic_out_of_memory() #6
  unreachable

lean_alloc_ctor.exit21:                           ; preds = %lean_alloc_ctor.exit20
  %36 = getelementptr inbounds nuw i8, ptr %33, i64 4
  store i32 1, ptr %33, align 4, !tbaa !8
  store i32 131096, ptr %36, align 4
  %37 = getelementptr inbounds nuw i8, ptr %33, i64 8
  store ptr %28, ptr %37, align 8, !tbaa !4
  %38 = getelementptr inbounds nuw i8, ptr %33, i64 16
  store ptr %6, ptr %38, align 8, !tbaa !4
  ret ptr %33
}